target datalayout = "e-m:e-p270:32:32-p271:32:32-p272:64:64-i64:64-i128:128-f80:128-n8:16:32:64-S128"
target triple = "x86_64-pc-linux-gnu"

%"class.ncnn::Mat" = type { ptr, ptr, i64, i32, ptr, i32, i32, i32, i32, i32, i64 }

; Function Attrs: alwaysinline mustprogress nounwind uwtable
define internal void @_ZN4ncnnL8fastFreeEPv(ptr noundef %0) #2 {
  %2 = alloca ptr, align 8
  store ptr %0, ptr %2, align 8, !tbaa !32
  %3 = load ptr, ptr %2, align 8, !tbaa !32
  %4 = icmp ne ptr %3, null
  br i1 %4, label %5, label %7

5:                                                ; preds = %1
  %6 = load ptr, ptr %2, align 8, !tbaa !32
  call void @free(ptr noundef %6) #9
  br label %7

7:                                                ; preds = %5, %1
  ret void
}

; Function Attrs: alwaysinline mustprogress nounwind uwtable
define internal noundef ptr @_ZN4ncnnL10fastMallocEm(i64 noundef %0) #2 {
  %2 = alloca i64, align 8
  %3 = alloca ptr, align 8
  store i64 %0, ptr %2, align 8, !tbaa !24
  call void @llvm.lifetime.start.p0(i64 8, ptr %3) #9
  store ptr null, ptr %3, align 8, !tbaa !32
  %4 = load i64, ptr %2, align 8, !tbaa !24
  %5 = add i64 %4, 64
  %6 = call i32 @posix_memalign(ptr noundef %3, i64 noundef 64, i64 noundef %5) #9
  %7 = icmp ne i32 %6, 0
  br i1 %7, label %8, label %9

8:                                                ; preds = %1
  store ptr null, ptr %3, align 8, !tbaa !32
  br label %9

9:                                                ; preds = %8, %1
  %10 = load ptr, ptr %3, align 8, !tbaa !32
  call void @llvm.lifetime.end.p0(i64 8, ptr %3) #9
  ret ptr %10
}

; Function Attrs: alwaysinline mustprogress nounwind uwtable
define internal noundef i64 @_ZN4ncnnL9alignSizeEmi(i64 noundef %0, i32 noundef %1) #2 {
  %3 = alloca i64, align 8
  %4 = alloca i32, align 4
  store i64 %0, ptr %3, align 8, !tbaa !24
  store i32 %1, ptr %4, align 4, !tbaa !25
  %5 = load i64, ptr %3, align 8, !tbaa !24
  %6 = load i32, ptr %4, align 4, !tbaa !25
  %7 = sext i32 %6 to i64
  %8 = add i64 %5, %7
  %9 = sub i64 %8, 1
  %10 = load i32, ptr %4, align 4, !tbaa !25
  %11 = sub nsw i32 0, %10
  %12 = sext i32 %11 to i64
  %13 = and i64 %9, %12
  ret i64 %13
}

; Function Attrs: alwaysinline mustprogress nounwind uwtable
define linkonce_odr hidden noundef i64 @_ZNK4ncnn3Mat5totalEv(ptr noundef nonnull align 8 dereferenceable(72) %0) #2 comdat align 2 {
  %2 = alloca ptr, align 8
  store ptr %0, ptr %2, align 8, !tbaa !4
  %3 = load ptr, ptr %2, align 8
  %4 = getelementptr inbounds nuw %"class.ncnn::Mat", ptr %3, i32 0, i32 10
  %5 = load i64, ptr %4, align 8, !tbaa !22
  %6 = getelementptr inbounds nuw %"class.ncnn::Mat", ptr %3, i32 0, i32 9
  %7 = load i32, ptr %6, align 8, !tbaa !20
  %8 = sext i32 %7 to i64
  %9 = mul i64 %5, %8
  ret i64 %9
}

; Function Attrs: alwaysinline mustprogress uwtable
define linkonce_odr hidden void @_ZN4ncnn3Mat7releaseEv(ptr noundef nonnull align 8 dereferenceable(72) %0) #1 comdat align 2 {
  %2 = alloca ptr, align 8
  %3 = alloca i32, align 4
  %4 = alloca i32, align 4
  store ptr %0, ptr %2, align 8, !tbaa !4
  %5 = load ptr, ptr %2, align 8
  %6 = getelementptr inbounds nuw %"class.ncnn::Mat", ptr %5, i32 0, i32 1
  %7 = load ptr, ptr %6, align 8, !tbaa !28
  %8 = icmp ne ptr %7, null
  br i1 %8, label %9, label %32

9:                                                ; preds = %1
  %10 = getelementptr inbounds nuw %"class.ncnn::Mat", ptr %5, i32 0, i32 1
  %11 = load ptr, ptr %10, align 8, !tbaa !28
  store i32 -1, ptr %3, align 4, !tbaa !25
  %12 = load i32, ptr %3, align 4
  %13 = atomicrmw add ptr %11, i32 %12 acq_rel, align 4
  store i32 %13, ptr %4, align 4
  %14 = load i32, ptr %4, align 4, !tbaa !25
  %15 = icmp eq i32 %14, 1
  br i1 %15, label %16, label %32

16:                                               ; preds = %9
  %17 = getelementptr inbounds nuw %"class.ncnn::Mat", ptr %5, i32 0, i32 4
  %18 = load ptr, ptr %17, align 8, !tbaa !29
  %19 = icmp ne ptr %18, null
  br i1 %19, label %20, label %28

20:                                               ; preds = %16
  %21 = getelementptr inbounds nuw %"class.ncnn::Mat", ptr %5, i32 0, i32 4
  %22 = load ptr, ptr %21, align 8, !tbaa !29
  %23 = getelementptr inbounds nuw %"class.ncnn::Mat", ptr %5, i32 0, i32 0
  %24 = load ptr, ptr %23, align 8, !tbaa !23
  %25 = load ptr, ptr %22, align 8, !tbaa !30
  %26 = getelementptr inbounds ptr, ptr %25, i64 3
  %27 = load ptr, ptr %26, align 8
  call void %27(ptr noundef nonnull align 8 dereferenceable(8) %22, ptr noundef %24)
  br label %31

28:                                               ; preds = %16
  %29 = getelementptr inbounds nuw %"class.ncnn::Mat", ptr %5, i32 0, i32 0
  %30 = load ptr, ptr %29, align 8, !tbaa !23
  call void @_ZN4ncnnL8fastFreeEPv(ptr noundef %30)
  br label %31

31:                                               ; preds = %28, %20
  br label %32

32:                                               ; preds = %31, %9, %1
  %33 = getelementptr inbounds nuw %"class.ncnn::Mat", ptr %5, i32 0, i32 0
  store ptr null, ptr %33, align 8, !tbaa !23
  %34 = getelementptr inbounds nuw %"class.ncnn::Mat", ptr %5, i32 0, i32 2
  store i64 0, ptr %34, align 8, !tbaa !17
  %35 = getelementptr inbounds nuw %"class.ncnn::Mat", ptr %5, i32 0, i32 3
  store i32 0, ptr %35, align 8, !tbaa !18
  %36 = getelementptr inbounds nuw %"class.ncnn::Mat", ptr %5, i32 0, i32 5
  store i32 0, ptr %36, align 8, !tbaa !11
  %37 = getelementptr inbounds nuw %"class.ncnn::Mat", ptr %5, i32 0, i32 6
  store i32 0, ptr %37, align 4, !tbaa !16
  %38 = getelementptr inbounds nuw %"class.ncnn::Mat", ptr %5, i32 0, i32 7
  store i32 0, ptr %38, align 8, !tbaa !19
  %39 = getelementptr inbounds nuw %"class.ncnn::Mat", ptr %5, i32 0, i32 8
  store i32 0, ptr %39, align 4, !tbaa !21
  %40 = getelementptr inbounds nuw %"class.ncnn::Mat", ptr %5, i32 0, i32 9
  store i32 0, ptr %40, align 8, !tbaa !20
  %41 = getelementptr inbounds nuw %"class.ncnn::Mat", ptr %5, i32 0, i32 10
  store i64 0, ptr %41, align 8, !tbaa !22
  %42 = getelementptr inbounds nuw %"class.ncnn::Mat", ptr %5, i32 0, i32 1
  store ptr null, ptr %42, align 8, !tbaa !28
  ret void
}

; Function Attrs: mustprogress uwtable
define hidden void @_ZN4ncnn3Mat6createEiimiPNS_9AllocatorE(ptr noundef nonnull align 8 dereferenceable(72) %0, i32 noundef %1, i32 noundef %2, i64 noundef %3, i32 noundef %4, ptr noundef %5) #0 align 2 {
  %7 = alloca ptr, align 8
  %8 = alloca i32, align 4
  %9 = alloca i32, align 4
  %10 = alloca i64, align 8
  %11 = alloca i32, align 4
  %12 = alloca ptr, align 8
  %13 = alloca i64, align 8
  store ptr %0, ptr %7, align 8, !tbaa !4
  store i32 %1, ptr %8, align 4, !tbaa !25
  store i32 %2, ptr %9, align 4, !tbaa !25
  store i64 %3, ptr %10, align 8, !tbaa !24
  store i32 %4, ptr %11, align 4, !tbaa !25
  store ptr %5, ptr %12, align 8, !tbaa !9
  %14 = load ptr, ptr %7, align 8
  %15 = getelementptr inbounds nuw %"class.ncnn::Mat", ptr %14, i32 0, i32 5
  %16 = load i32, ptr %15, align 8, !tbaa !11
  %17 = icmp eq i32 %16, 2
  br i1 %17, label %18, label %44

18:                                               ; preds = %6
  %19 = getelementptr inbounds nuw %"class.ncnn::Mat", ptr %14, i32 0, i32 6
  %20 = load i32, ptr %19, align 4, !tbaa !16
  %21 = load i32, ptr %8, align 4, !tbaa !25
  %22 = icmp eq i32 %20, %21
  br i1 %22, label %23, label %44

23:                                               ; preds = %18
  %24 = getelementptr inbounds nuw %"class.ncnn::Mat", ptr %14, i32 0, i32 7
  %25 = load i32, ptr %24, align 8, !tbaa !19
  %26 = load i32, ptr %9, align 4, !tbaa !25
  %27 = icmp eq i32 %25, %26
  br i1 %27, label %28, label %44

28:                                               ; preds = %23
  %29 = getelementptr inbounds nuw %"class.ncnn::Mat", ptr %14, i32 0, i32 2
  %30 = load i64, ptr %29, align 8, !tbaa !17
  %31 = load i64, ptr %10, align 8, !tbaa !24
  %32 = icmp eq i64 %30, %31
  br i1 %32, label %33, label %44

33:                                               ; preds = %28
  %34 = getelementptr inbounds nuw %"class.ncnn::Mat", ptr %14, i32 0, i32 3
  %35 = load i32, ptr %34, align 8, !tbaa !18
  %36 = load i32, ptr %11, align 4, !tbaa !25
  %37 = icmp eq i32 %35, %36
  br i1 %37, label %38, label %44

38:                                               ; preds = %33
  %39 = getelementptr inbounds nuw %"class.ncnn::Mat", ptr %14, i32 0, i32 4
  %40 = load ptr, ptr %39, align 8, !tbaa !29
  %41 = load ptr, ptr %12, align 8, !tbaa !9
  %42 = icmp eq ptr %40, %41
  br i1 %42, label %43, label %44

43:                                               ; preds = %38
  br label %106

44:                                               ; preds = %38, %33, %28, %23, %18, %6
  call void @_ZN4ncnn3Mat7releaseEv(ptr noundef nonnull align 8 dereferenceable(72) %14)
  %45 = load i64, ptr %10, align 8, !tbaa !24
  %46 = getelementptr inbounds nuw %"class.ncnn::Mat", ptr %14, i32 0, i32 2
  store i64 %45, ptr %46, align 8, !tbaa !17
  %47 = load i32, ptr %11, align 4, !tbaa !25
  %48 = getelementptr inbounds nuw %"class.ncnn::Mat", ptr %14, i32 0, i32 3
  store i32 %47, ptr %48, align 8, !tbaa !18
  %49 = load ptr, ptr %12, align 8, !tbaa !9
  %50 = getelementptr inbounds nuw %"class.ncnn::Mat", ptr %14, i32 0, i32 4
  store ptr %49, ptr %50, align 8, !tbaa !29
  %51 = getelementptr inbounds nuw %"class.ncnn::Mat", ptr %14, i32 0, i32 5
  store i32 2, ptr %51, align 8, !tbaa !11
  %52 = load i32, ptr %8, align 4, !tbaa !25
  %53 = getelementptr inbounds nuw %"class.ncnn::Mat", ptr %14, i32 0, i32 6
  store i32 %52, ptr %53, align 4, !tbaa !16
  %54 = load i32, ptr %9, align 4, !tbaa !25
  %55 = getelementptr inbounds nuw %"class.ncnn::Mat", ptr %14, i32 0, i32 7
  store i32 %54, ptr %55, align 8, !tbaa !19
  %56 = getelementptr inbounds nuw %"class.ncnn::Mat", ptr %14, i32 0, i32 8
  store i32 1, ptr %56, align 4, !tbaa !21
  %57 = getelementptr inbounds nuw %"class.ncnn::Mat", ptr %14, i32 0, i32 9
  store i32 1, ptr %57, align 8, !tbaa !20
  %58 = getelementptr inbounds nuw %"class.ncnn::Mat", ptr %14, i32 0, i32 6
  %59 = load i32, ptr %58, align 4, !tbaa !16
  %60 = sext i32 %59 to i64
  %61 = getelementptr inbounds nuw %"class.ncnn::Mat", ptr %14, i32 0, i32 7
  %62 = load i32, ptr %61, align 8, !tbaa !19
  %63 = sext i32 %62 to i64
  %64 = mul i64 %60, %63
  %65 = getelementptr inbounds nuw %"class.ncnn::Mat", ptr %14, i32 0, i32 10
  store i64 %64, ptr %65, align 8, !tbaa !22
  call void @llvm.lifetime.start.p0(i64 8, ptr %13) #9
  %66 = call noundef i64 @_ZNK4ncnn3Mat5totalEv(ptr noundef nonnull align 8 dereferenceable(72) %14)
  %67 = getelementptr inbounds nuw %"class.ncnn::Mat", ptr %14, i32 0, i32 2
  %68 = load i64, ptr %67, align 8, !tbaa !17
  %69 = mul i64 %66, %68
  %70 = call noundef i64 @_ZN4ncnnL9alignSizeEmi(i64 noundef %69, i32 noundef 4)
  store i64 %70, ptr %13, align 8, !tbaa !24
  %71 = load i64, ptr %13, align 8, !tbaa !24
  %72 = icmp ugt i64 %71, 0
  br i1 %72, label %73, label %93

73:                                               ; preds = %44
  %74 = getelementptr inbounds nuw %"class.ncnn::Mat", ptr %14, i32 0, i32 4
  %75 = load ptr, ptr %74, align 8, !tbaa !29
  %76 = icmp ne ptr %75, null
  br i1 %76, label %77, label %87

77:                                               ; preds = %73
  %78 = getelementptr inbounds nuw %"class.ncnn::Mat", ptr %14, i32 0, i32 4
  %79 = load ptr, ptr %78, align 8, !tbaa !29
  %80 = load i64, ptr %13, align 8, !tbaa !24
  %81 = add i64 %80, 4
  %82 = load ptr, ptr %79, align 8, !tbaa !30
  %83 = getelementptr inbounds ptr, ptr %82, i64 2
  %84 = load ptr, ptr %83, align 8
  %85 = call noundef ptr %84(ptr noundef nonnull align 8 dereferenceable(8) %79, i64 noundef %81)
  %86 = getelementptr inbounds nuw %"class.ncnn::Mat", ptr %14, i32 0, i32 0
  store ptr %85, ptr %86, align 8, !tbaa !23
  br label %92

87:                                               ; preds = %73
  %88 = load i64, ptr %13, align 8, !tbaa !24
  %89 = add i64 %88, 4
  %90 = call noundef ptr @_ZN4ncnnL10fastMallocEm(i64 noundef %89)
  %91 = getelementptr inbounds nuw %"class.ncnn::Mat", ptr %14, i32 0, i32 0
  store ptr %90, ptr %91, align 8, !tbaa !23
  br label %92

92:                                               ; preds = %87, %77
  br label %93

93:                                               ; preds = %92, %44
  %94 = getelementptr inbounds nuw %"class.ncnn::Mat", ptr %14, i32 0, i32 0
  %95 = load ptr, ptr %94, align 8, !tbaa !23
  %96 = icmp ne ptr %95, null
  br i1 %96, label %97, label %105

97:                                               ; preds = %93
  %98 = getelementptr inbounds nuw %"class.ncnn::Mat", ptr %14, i32 0, i32 0
  %99 = load ptr, ptr %98, align 8, !tbaa !23
  %100 = load i64, ptr %13, align 8, !tbaa !24
  %101 = getelementptr inbounds nuw i8, ptr %99, i64 %100
  %102 = getelementptr inbounds nuw %"class.ncnn::Mat", ptr %14, i32 0, i32 1
  store ptr %101, ptr %102, align 8, !tbaa !28
  %103 = getelementptr inbounds nuw %"class.ncnn::Mat", ptr %14, i32 0, i32 1
  %104 = load ptr, ptr %103, align 8, !tbaa !28
  store i32 1, ptr %104, align 4, !tbaa !25
  br label %105

105:                                              ; preds = %97, %93
  call void @llvm.lifetime.end.p0(i64 8, ptr %13) #9
  br label %106

106:                                              ; preds = %105, %43
  ret void
}