; Function Attrs: mustprogress uwtable
define hidden void @_ZN4ncnn3Mat6createEiimiPNS_9AllocatorE(ptr noundef nonnull align 8 captures(none) dereferenceable(72) %0, i32 noundef %1, i32 noundef %2, i64 noundef %3, i32 noundef %4, ptr noundef %5) local_unnamed_addr #0 align 2 {
  %7 = alloca ptr, align 8
  %8 = getelementptr inbounds nuw i8, ptr %0, i64 40
  %9 = load i32, ptr %8, align 8, !tbaa !15
  %10 = icmp eq i32 %9, 2
  %11 = getelementptr inbounds nuw i8, ptr %0, i64 44
  %12 = load i32, ptr %11, align 4
  %13 = icmp eq i32 %12, %1
  %or.cond = select i1 %10, i1 %13, i1 false
  %14 = getelementptr inbounds nuw i8, ptr %0, i64 48
  %15 = load i32, ptr %14, align 8
  %16 = icmp eq i32 %15, %2
  %or.cond22 = select i1 %or.cond, i1 %16, i1 false
  %17 = getelementptr inbounds nuw i8, ptr %0, i64 16
  %18 = load i64, ptr %17, align 8
  %19 = icmp eq i64 %18, %3
  %or.cond25 = select i1 %or.cond22, i1 %19, i1 false
  %20 = getelementptr inbounds nuw i8, ptr %0, i64 24
  %21 = load i32, ptr %20, align 8
  %22 = icmp eq i32 %21, %4
  %or.cond28 = select i1 %or.cond25, i1 %22, i1 false
  %23 = getelementptr inbounds nuw i8, ptr %0, i64 32
  %24 = load ptr, ptr %23, align 8
  %25 = icmp eq ptr %24, %5
  %or.cond31 = select i1 %or.cond28, i1 %25, i1 false
  br i1 %or.cond31, label %thread-pre-split.thread, label %26

26:                                               ; preds = %6
  %27 = getelementptr inbounds nuw i8, ptr %0, i64 8
  %28 = load ptr, ptr %27, align 8, !tbaa !19
  %.not.i = icmp eq ptr %28, null
  br i1 %.not.i, label %_ZN4ncnn3Mat7releaseEv.exit, label %29

29:                                               ; preds = %26
  %30 = atomicrmw add ptr %28, i32 -1 acq_rel, align 4
  %31 = icmp eq i32 %30, 1
  br i1 %31, label %32, label %_ZN4ncnn3Mat7releaseEv.exit

32:                                               ; preds = %29
  %33 = load ptr, ptr %23, align 8, !tbaa !30
  %.not3.i = icmp eq ptr %33, null
  %34 = load ptr, ptr %0, align 8, !tbaa !4
  br i1 %.not3.i, label %39, label %35

35:                                               ; preds = %32
  %36 = load ptr, ptr %33, align 8, !tbaa !31
  %37 = getelementptr inbounds nuw i8, ptr %36, i64 24
  %38 = load ptr, ptr %37, align 8
  tail call void %38(ptr noundef nonnull align 8 dereferenceable(8) %33, ptr noundef %34)
  br label %_ZN4ncnn3Mat7releaseEv.exit

39:                                               ; preds = %32
  %.not.i32 = icmp eq ptr %34, null
  br i1 %.not.i32, label %_ZN4ncnn3Mat7releaseEv.exit, label %40

40:                                               ; preds = %39
  tail call void @free(ptr noundef nonnull %34) #12
  br label %_ZN4ncnn3Mat7releaseEv.exit

_ZN4ncnn3Mat7releaseEv.exit:                      ; preds = %40, %39, %26, %29, %35
  %41 = getelementptr inbounds nuw i8, ptr %0, i64 52
  %42 = getelementptr inbounds nuw i8, ptr %0, i64 56
  %43 = getelementptr inbounds nuw i8, ptr %0, i64 64
  tail call void @llvm.memset.p0.i64(ptr noundef nonnull align 8 dereferenceable(16) %0, i8 0, i64 16, i1 false)
  store i64 %3, ptr %17, align 8, !tbaa !17
  store i32 %4, ptr %20, align 8, !tbaa !18
  store ptr %5, ptr %23, align 8, !tbaa !30
  store i32 2, ptr %8, align 8, !tbaa !15
  store i32 %1, ptr %11, align 4, !tbaa !16
  store i32 %2, ptr %14, align 8, !tbaa !20
  store i32 1, ptr %41, align 4, !tbaa !21
  store i32 1, ptr %42, align 8, !tbaa !14
  %44 = sext i32 %1 to i64
  %45 = sext i32 %2 to i64
  %46 = mul nsw i64 %45, %44
  store i64 %46, ptr %43, align 8, !tbaa !13
  %47 = mul i64 %46, %3
  %48 = add i64 %47, 3
  %49 = and i64 %48, -4
  %.not = icmp eq i64 %49, 0
  br i1 %.not, label %thread-pre-split.thread, label %50

50:                                               ; preds = %_ZN4ncnn3Mat7releaseEv.exit
  %.not16 = icmp eq ptr %5, null
  br i1 %.not16, label %_ZN4ncnnL10fastMallocEm.exit, label %51

51:                                               ; preds = %50
  %52 = add i64 %49, 4
  %53 = load ptr, ptr %5, align 8, !tbaa !31
  %54 = getelementptr inbounds nuw i8, ptr %53, i64 16
  %55 = load ptr, ptr %54, align 8
  %56 = tail call noundef ptr %55(ptr noundef nonnull align 8 dereferenceable(8) %5, i64 noundef %52)
  br label %thread-pre-split

_ZN4ncnnL10fastMallocEm.exit:                     ; preds = %50
  call void @llvm.lifetime.start.p0(i64 8, ptr nonnull %7) #12
  store ptr null, ptr %7, align 8, !tbaa !33
  %57 = add i64 %49, 68
  %58 = call i32 @posix_memalign(ptr noundef nonnull %7, i64 noundef 64, i64 noundef %57) #12
  %.not.i33 = icmp eq i32 %58, 0
  %.pre = load ptr, ptr %7, align 8
  %59 = select i1 %.not.i33, ptr %.pre, ptr null
  call void @llvm.lifetime.end.p0(i64 8, ptr nonnull %7) #12
  br label %thread-pre-split

thread-pre-split:                                 ; preds = %51, %_ZN4ncnnL10fastMallocEm.exit
  %.sink = phi ptr [ %56, %51 ], [ %59, %_ZN4ncnnL10fastMallocEm.exit ]
  store ptr %.sink, ptr %0, align 8, !tbaa !4
  %.not17 = icmp eq ptr %.sink, null
  br i1 %.not17, label %thread-pre-split.thread, label %60

60:                                               ; preds = %thread-pre-split
  %61 = getelementptr inbounds nuw i8, ptr %.sink, i64 %49
  store ptr %61, ptr %27, align 8, !tbaa !19
  store i32 1, ptr %61, align 4, !tbaa !34
  br label %thread-pre-split.thread

thread-pre-split.thread:                          ; preds = %_ZN4ncnn3Mat7releaseEv.exit, %thread-pre-split, %60, %6
  ret void
}